target datalayout = "e-m:e-p270:32:32-p271:32:32-p272:64:64-i64:64-i128:128-f80:128-n8:16:32:64-S128"
target triple = "x86_64-unknown-linux-gnu"

%struct.stbi_io_callbacks = type { ptr, ptr, ptr }
%struct.stbi__context = type { i32, i32, i32, i32, %struct.stbi_io_callbacks, ptr, i32, i32, [128 x i8], i32, ptr, ptr, ptr, ptr }

; Function Attrs: mustprogress nounwind uwtable
define internal void @_ZL15stbi__start_memP13stbi__contextPKhi(ptr noundef %s, ptr noundef %buffer, i32 noundef %len) #0 {
entry:
  %s.addr = alloca ptr, align 8
  %buffer.addr = alloca ptr, align 8
  %len.addr = alloca i32, align 4
  store ptr %s, ptr %s.addr, align 8
  store ptr %buffer, ptr %buffer.addr, align 8
  store i32 %len, ptr %len.addr, align 4
  %0 = load ptr, ptr %s.addr, align 8
  %io = getelementptr inbounds %struct.stbi__context, ptr %0, i32 0, i32 4
  %read = getelementptr inbounds %struct.stbi_io_callbacks, ptr %io, i32 0, i32 0
  store ptr null, ptr %read, align 8
  %1 = load ptr, ptr %s.addr, align 8
  %read_from_callbacks = getelementptr inbounds %struct.stbi__context, ptr %1, i32 0, i32 6
  store i32 0, ptr %read_from_callbacks, align 8
  %2 = load ptr, ptr %s.addr, align 8
  %callback_already_read = getelementptr inbounds %struct.stbi__context, ptr %2, i32 0, i32 9
  store i32 0, ptr %callback_already_read, align 8
  %3 = load ptr, ptr %buffer.addr, align 8
  %4 = load ptr, ptr %s.addr, align 8
  %img_buffer_original = getelementptr inbounds %struct.stbi__context, ptr %4, i32 0, i32 12
  store ptr %3, ptr %img_buffer_original, align 8
  %5 = load ptr, ptr %s.addr, align 8
  %img_buffer = getelementptr inbounds %struct.stbi__context, ptr %5, i32 0, i32 10
  store ptr %3, ptr %img_buffer, align 8
  %6 = load ptr, ptr %buffer.addr, align 8
  %7 = load i32, ptr %len.addr, align 4
  %idx.ext = sext i32 %7 to i64
  %add.ptr = getelementptr inbounds i8, ptr %6, i64 %idx.ext
  %8 = load ptr, ptr %s.addr, align 8
  %img_buffer_original_end = getelementptr inbounds %struct.stbi__context, ptr %8, i32 0, i32 13
  store ptr %add.ptr, ptr %img_buffer_original_end, align 8
  %9 = load ptr, ptr %s.addr, align 8
  %img_buffer_end = getelementptr inbounds %struct.stbi__context, ptr %9, i32 0, i32 11
  store ptr %add.ptr, ptr %img_buffer_end, align 8
  ret void
}

; Function Attrs: mustprogress uwtable
define hidden ptr @assimp_stbi_load_from_memory(ptr noundef %buffer, i32 noundef %len, ptr noundef %x, ptr noundef %y, ptr noundef %comp, i32 noundef %req_comp) #5 {
entry:
  %buffer.addr = alloca ptr, align 8
  %len.addr = alloca i32, align 4
  %x.addr = alloca ptr, align 8
  %y.addr = alloca ptr, align 8
  %comp.addr = alloca ptr, align 8
  %req_comp.addr = alloca i32, align 4
  %s = alloca %struct.stbi__context, align 8
  store ptr %buffer, ptr %buffer.addr, align 8
  store i32 %len, ptr %len.addr, align 4
  store ptr %x, ptr %x.addr, align 8
  store ptr %y, ptr %y.addr, align 8
  store ptr %comp, ptr %comp.addr, align 8
  store i32 %req_comp, ptr %req_comp.addr, align 4
  %0 = load ptr, ptr %buffer.addr, align 8
  %1 = load i32, ptr %len.addr, align 4
  call void @_ZL15stbi__start_memP13stbi__contextPKhi(ptr noundef %s, ptr noundef %0, i32 noundef %1)
  %2 = load ptr, ptr %x.addr, align 8
  %3 = load ptr, ptr %y.addr, align 8
  %4 = load ptr, ptr %comp.addr, align 8
  %5 = load i32, ptr %req_comp.addr, align 4
  %call = call noundef ptr @_ZL31stbi__load_and_postprocess_8bitP13stbi__contextPiS1_S1_i(ptr noundef %s, ptr noundef %2, ptr noundef %3, ptr noundef %4, i32 noundef %5)
  ret ptr %call
}