; Function Attrs: mustprogress uwtable
define hidden noundef ptr @assimp_stbi_load_from_memory(ptr noundef %buffer, i32 noundef %len, ptr nocapture noundef %x, ptr nocapture noundef %y, ptr noundef %comp, i32 noundef %req_comp) local_unnamed_addr #3 {
entry:
  %s = alloca %struct.stbi__context, align 8
  %io.i = getelementptr inbounds i8, ptr %s, i64 16
  store ptr null, ptr %io.i, align 8
  %read_from_callbacks.i = getelementptr inbounds i8, ptr %s, i64 48
  store i32 0, ptr %read_from_callbacks.i, align 8
  %callback_already_read.i = getelementptr inbounds i8, ptr %s, i64 184
  store i32 0, ptr %callback_already_read.i, align 8
  %img_buffer_original.i = getelementptr inbounds i8, ptr %s, i64 208
  store ptr %buffer, ptr %img_buffer_original.i, align 8
  %img_buffer.i = getelementptr inbounds i8, ptr %s, i64 192
  store ptr %buffer, ptr %img_buffer.i, align 8
  %idx.ext.i = sext i32 %len to i64
  %add.ptr.i = getelementptr inbounds i8, ptr %buffer, i64 %idx.ext.i
  %img_buffer_original_end.i = getelementptr inbounds i8, ptr %s, i64 216
  store ptr %add.ptr.i, ptr %img_buffer_original_end.i, align 8
  %img_buffer_end.i = getelementptr inbounds i8, ptr %s, i64 200
  store ptr %add.ptr.i, ptr %img_buffer_end.i, align 8
  %call = call fastcc noundef ptr @_ZL31stbi__load_and_postprocess_8bitP13stbi__contextPiS1_S1_i(ptr noundef nonnull %s, ptr noundef %x, ptr noundef %y, ptr noundef %comp, i32 noundef %req_comp)
  ret ptr %call
}